target datalayout = "e-m:e-p270:32:32-p271:32:32-p272:64:64-i64:64-i128:128-f80:128-n8:16:32:64-S128"
target triple = "x86_64-pc-linux-gnu"

%"struct.glslang::TAttributeArgs" = type { i32, ptr }
%"class.glslang::TConstUnion" = type <{ %union.anon, i32, [4 x i8] }>
%union.anon = type { i64 }
%"struct.std::_Vector_base" = type { %"struct.std::_Vector_base<TIntermNode *, glslang::pool_allocator<TIntermNode *>>::_Vector_impl" }
%"struct.std::_Vector_base<TIntermNode *, glslang::pool_allocator<TIntermNode *>>::_Vector_impl" = type { %"class.glslang::pool_allocator.2", %"struct.std::_Vector_base<TIntermNode *, glslang::pool_allocator<TIntermNode *>>::_Vector_impl_data" }
%"class.glslang::pool_allocator.2" = type { ptr }
%"struct.std::_Vector_base<TIntermNode *, glslang::pool_allocator<TIntermNode *>>::_Vector_impl_data" = type { ptr, ptr, ptr }
%"class.glslang::TIntermConstantUnion" = type <{ %"class.glslang::TIntermTyped", %"class.glslang::TConstUnionArray", i8, [7 x i8] }>
%"class.glslang::TIntermTyped" = type { %class.TIntermNode, %"class.glslang::TType" }
%class.TIntermNode = type { ptr, %"struct.glslang::TSourceLoc" }
%"struct.glslang::TSourceLoc" = type { ptr, i32, i32, i32 }
%"class.glslang::TType" = type { ptr, i32, [4 x i8], %"class.glslang::TQualifier", ptr, %union.anon.1, ptr, ptr, %"struct.glslang::TSampler", ptr, ptr }
%"class.glslang::TQualifier" = type <{ ptr, i64, i8, [3 x i8], i32, i32, i64, i64, i8, i8, i8, i8, i8, [3 x i8], i32, i8, i8, i8, i8, i32, ptr, i8, i8, [6 x i8] }>
%union.anon.1 = type { ptr }
%"struct.glslang::TSampler" = type { i32 }
%"class.glslang::TConstUnionArray" = type { ptr, ptr }
%"struct.std::_List_const_iterator" = type { ptr }
%"struct.std::__detail::_List_node_base" = type { ptr, ptr }
%class.anon.173 = type { ptr, ptr, ptr }
%"struct.std::_Vector_base.178" = type { %"struct.std::_Vector_base<glslang::TConstUnion, glslang::pool_allocator<glslang::TConstUnion>>::_Vector_impl" }
%"struct.std::_Vector_base<glslang::TConstUnion, glslang::pool_allocator<glslang::TConstUnion>>::_Vector_impl" = type { %"class.glslang::pool_allocator.179", %"struct.std::_Vector_base<glslang::TConstUnion, glslang::pool_allocator<glslang::TConstUnion>>::_Vector_impl_data" }
%"class.glslang::pool_allocator.179" = type { ptr }
%"struct.std::_Vector_base<glslang::TConstUnion, glslang::pool_allocator<glslang::TConstUnion>>::_Vector_impl_data" = type { ptr, ptr, ptr }
%"struct.std::_List_node" = type { %"struct.std::__detail::_List_node_base", %"struct.__gnu_cxx::__aligned_membuf" }
%"struct.__gnu_cxx::__aligned_membuf" = type { [16 x i8] }

@.str.17 = private unnamed_addr constant [1 x i8] zeroinitializer, align 1
@.str.25 = private unnamed_addr constant [35 x i8] c"expected a single integer argument\00", align 1

; Function Attrs: mustprogress nounwind uwtable
define linkonce_odr noundef nonnull align 8 dereferenceable(12) ptr @_ZNSt6vectorIN7glslang11TConstUnionENS0_14pool_allocatorIS1_EEEixEm(ptr noundef nonnull align 8 dereferenceable(32) %0, i64 noundef %1) #0 comdat align 2 {
  %3 = alloca ptr, align 8
  %4 = alloca i64, align 8
  store ptr %0, ptr %3, align 8
  store i64 %1, ptr %4, align 8
  %5 = load ptr, ptr %3, align 8
  %6 = getelementptr inbounds %"struct.std::_Vector_base.178", ptr %5, i32 0, i32 0
  %7 = getelementptr inbounds i8, ptr %6, i64 8
  %8 = getelementptr inbounds %"struct.std::_Vector_base<glslang::TConstUnion, glslang::pool_allocator<glslang::TConstUnion>>::_Vector_impl_data", ptr %7, i32 0, i32 0
  %9 = load ptr, ptr %8, align 8
  %10 = load i64, ptr %4, align 8
  %11 = getelementptr inbounds %"class.glslang::TConstUnion", ptr %9, i64 %10
  ret ptr %11
}

; Function Attrs: mustprogress nounwind uwtable
define linkonce_odr noundef ptr @_ZNK9__gnu_cxx16__aligned_membufIN7glslang14TAttributeArgsEE7_M_addrEv(ptr noundef nonnull align 8 dereferenceable(16) %0) #0 comdat align 2 {
  %2 = alloca ptr, align 8
  store ptr %0, ptr %2, align 8
  %3 = load ptr, ptr %2, align 8
  %4 = getelementptr inbounds %"struct.__gnu_cxx::__aligned_membuf", ptr %3, i32 0, i32 0
  ret ptr %4
}

; Function Attrs: mustprogress nounwind uwtable
define linkonce_odr noundef i32 @_ZNK7glslang11TConstUnion7getTypeEv(ptr noundef nonnull align 8 dereferenceable(12) %0) #0 comdat align 2 {
  %2 = alloca ptr, align 8
  store ptr %0, ptr %2, align 8
  %3 = load ptr, ptr %2, align 8
  %4 = getelementptr inbounds %"class.glslang::TConstUnion", ptr %3, i32 0, i32 1
  %5 = load i32, ptr %4, align 8
  ret i32 %5
}

; Function Attrs: mustprogress nounwind uwtable
define linkonce_odr noundef nonnull align 8 dereferenceable(12) ptr @_ZNK7glslang16TConstUnionArrayixEm(ptr noundef nonnull align 8 dereferenceable(16) %0, i64 noundef %1) #0 comdat align 2 {
  %3 = alloca ptr, align 8
  %4 = alloca i64, align 8
  store ptr %0, ptr %3, align 8
  store i64 %1, ptr %4, align 8
  %5 = load ptr, ptr %3, align 8
  %6 = getelementptr inbounds %"class.glslang::TConstUnionArray", ptr %5, i32 0, i32 1
  %7 = load ptr, ptr %6, align 8
  %8 = load i64, ptr %4, align 8
  %9 = call noundef nonnull align 8 dereferenceable(12) ptr @_ZNSt6vectorIN7glslang11TConstUnionENS0_14pool_allocatorIS1_EEEixEm(ptr noundef nonnull align 8 dereferenceable(32) %7, i64 noundef %8) #7
  ret ptr %9
}

; Function Attrs: mustprogress nounwind uwtable
define linkonce_odr noundef nonnull align 8 dereferenceable(16) ptr @_ZNK7glslang20TIntermConstantUnion13getConstArrayEv(ptr noundef nonnull align 8 dereferenceable(201) %0) #0 comdat align 2 {
  %2 = alloca ptr, align 8
  store ptr %0, ptr %2, align 8
  %3 = load ptr, ptr %2, align 8
  %4 = getelementptr inbounds %"class.glslang::TIntermConstantUnion", ptr %3, i32 0, i32 1
  ret ptr %4
}

; Function Attrs: mustprogress nounwind uwtable
define linkonce_odr noundef nonnull align 8 dereferenceable(8) ptr @_ZNKSt6vectorIP11TIntermNodeN7glslang14pool_allocatorIS1_EEEixEm(ptr noundef nonnull align 8 dereferenceable(32) %0, i64 noundef %1) #0 comdat align 2 {
  %3 = alloca ptr, align 8
  %4 = alloca i64, align 8
  store ptr %0, ptr %3, align 8
  store i64 %1, ptr %4, align 8
  %5 = load ptr, ptr %3, align 8
  %6 = getelementptr inbounds %"struct.std::_Vector_base", ptr %5, i32 0, i32 0
  %7 = getelementptr inbounds i8, ptr %6, i64 8
  %8 = getelementptr inbounds %"struct.std::_Vector_base<TIntermNode *, glslang::pool_allocator<TIntermNode *>>::_Vector_impl_data", ptr %7, i32 0, i32 0
  %9 = load ptr, ptr %8, align 8
  %10 = load i64, ptr %4, align 8
  %11 = getelementptr inbounds ptr, ptr %9, i64 %10
  ret ptr %11
}

; Function Attrs: mustprogress nounwind uwtable
define linkonce_odr noundef ptr @_ZNK9__gnu_cxx16__aligned_membufIN7glslang14TAttributeArgsEE6_M_ptrEv(ptr noundef nonnull align 8 dereferenceable(16) %0) #0 comdat align 2 {
  %2 = alloca ptr, align 8
  store ptr %0, ptr %2, align 8
  %3 = load ptr, ptr %2, align 8
  %4 = call noundef ptr @_ZNK9__gnu_cxx16__aligned_membufIN7glslang14TAttributeArgsEE7_M_addrEv(ptr noundef nonnull align 8 dereferenceable(16) %3) #7
  ret ptr %4
}

; Function Attrs: mustprogress nounwind uwtable
define linkonce_odr noundef i32 @_ZNK7glslang11TConstUnion9getIConstEv(ptr noundef nonnull align 8 dereferenceable(12) %0) #0 comdat align 2 {
  %2 = alloca ptr, align 8
  store ptr %0, ptr %2, align 8
  %3 = load ptr, ptr %2, align 8
  %4 = getelementptr inbounds %"class.glslang::TConstUnion", ptr %3, i32 0, i32 0
  %5 = load i32, ptr %4, align 8
  ret i32 %5
}

; Function Attrs: mustprogress nounwind uwtable
define noundef ptr @_ZNK7glslang14TAttributeArgs13getConstUnionENS_10TBasicTypeEi(ptr noundef nonnull align 8 dereferenceable(16) %0, i32 noundef %1, i32 noundef %2) #0 align 2 {
  %4 = alloca ptr, align 8
  %5 = alloca ptr, align 8
  %6 = alloca i32, align 4
  %7 = alloca i32, align 4
  %8 = alloca ptr, align 8
  store ptr %0, ptr %5, align 8
  store i32 %1, ptr %6, align 4
  store i32 %2, ptr %7, align 4
  %9 = load ptr, ptr %5, align 8
  %10 = getelementptr inbounds %"struct.glslang::TAttributeArgs", ptr %9, i32 0, i32 1
  %11 = load ptr, ptr %10, align 8
  %12 = icmp eq ptr %11, null
  br i1 %12, label %13, label %14

13:                                               ; preds = %3
  store ptr null, ptr %4, align 8
  br label %70

14:                                               ; preds = %3
  %15 = load i32, ptr %7, align 4
  %16 = getelementptr inbounds %"struct.glslang::TAttributeArgs", ptr %9, i32 0, i32 1
  %17 = load ptr, ptr %16, align 8
  %18 = load ptr, ptr %17, align 8
  %19 = getelementptr inbounds ptr, ptr %18, i64 51
  %20 = load ptr, ptr %19, align 8
  %21 = call noundef nonnull align 8 dereferenceable(32) ptr %20(ptr noundef nonnull align 8 dereferenceable(364) %17)
  %22 = call noundef i64 @_ZNKSt6vectorIP11TIntermNodeN7glslang14pool_allocatorIS1_EEE4sizeEv(ptr noundef nonnull align 8 dereferenceable(32) %21) #7
  %23 = trunc i64 %22 to i32
  %24 = icmp sge i32 %15, %23
  br i1 %24, label %25, label %26

25:                                               ; preds = %14
  store ptr null, ptr %4, align 8
  br label %70

26:                                               ; preds = %14
  %27 = getelementptr inbounds %"struct.glslang::TAttributeArgs", ptr %9, i32 0, i32 1
  %28 = load ptr, ptr %27, align 8
  %29 = load ptr, ptr %28, align 8
  %30 = getelementptr inbounds ptr, ptr %29, i64 51
  %31 = load ptr, ptr %30, align 8
  %32 = call noundef nonnull align 8 dereferenceable(32) ptr %31(ptr noundef nonnull align 8 dereferenceable(364) %28)
  %33 = load i32, ptr %7, align 4
  %34 = sext i32 %33 to i64
  %35 = call noundef nonnull align 8 dereferenceable(8) ptr @_ZNKSt6vectorIP11TIntermNodeN7glslang14pool_allocatorIS1_EEEixEm(ptr noundef nonnull align 8 dereferenceable(32) %32, i64 noundef %34) #7
  %36 = load ptr, ptr %35, align 8
  %37 = load ptr, ptr %36, align 8
  %38 = getelementptr inbounds ptr, ptr %37, i64 5
  %39 = load ptr, ptr %38, align 8
  %40 = call noundef ptr %39(ptr noundef nonnull align 8 dereferenceable(32) %36)
  %41 = icmp eq ptr %40, null
  br i1 %41, label %42, label %43

42:                                               ; preds = %26
  store ptr null, ptr %4, align 8
  br label %70

43:                                               ; preds = %26
  %44 = getelementptr inbounds %"struct.glslang::TAttributeArgs", ptr %9, i32 0, i32 1
  %45 = load ptr, ptr %44, align 8
  %46 = load ptr, ptr %45, align 8
  %47 = getelementptr inbounds ptr, ptr %46, i64 51
  %48 = load ptr, ptr %47, align 8
  %49 = call noundef nonnull align 8 dereferenceable(32) ptr %48(ptr noundef nonnull align 8 dereferenceable(364) %45)
  %50 = load i32, ptr %7, align 4
  %51 = sext i32 %50 to i64
  %52 = call noundef nonnull align 8 dereferenceable(8) ptr @_ZNKSt6vectorIP11TIntermNodeN7glslang14pool_allocatorIS1_EEEixEm(ptr noundef nonnull align 8 dereferenceable(32) %49, i64 noundef %51) #7
  %53 = load ptr, ptr %52, align 8
  %54 = load ptr, ptr %53, align 8
  %55 = getelementptr inbounds ptr, ptr %54, i64 5
  %56 = load ptr, ptr %55, align 8
  %57 = call noundef ptr %56(ptr noundef nonnull align 8 dereferenceable(32) %53)
  %58 = call noundef nonnull align 8 dereferenceable(16) ptr @_ZNK7glslang20TIntermConstantUnion13getConstArrayEv(ptr noundef nonnull align 8 dereferenceable(201) %57)
  %59 = call noundef nonnull align 8 dereferenceable(12) ptr @_ZNK7glslang16TConstUnionArrayixEm(ptr noundef nonnull align 8 dereferenceable(16) %58, i64 noundef 0)
  store ptr %59, ptr %8, align 8
  %60 = load ptr, ptr %8, align 8
  %61 = icmp eq ptr %60, null
  br i1 %61, label %67, label %62

62:                                               ; preds = %43
  %63 = load ptr, ptr %8, align 8
  %64 = call noundef i32 @_ZNK7glslang11TConstUnion7getTypeEv(ptr noundef nonnull align 8 dereferenceable(12) %63)
  %65 = load i32, ptr %6, align 4
  %66 = icmp ne i32 %64, %65
  br i1 %66, label %67, label %68

67:                                               ; preds = %62, %43
  store ptr null, ptr %4, align 8
  br label %70

68:                                               ; preds = %62
  %69 = load ptr, ptr %8, align 8
  store ptr %69, ptr %4, align 8
  br label %70

70:                                               ; preds = %68, %67, %42, %25, %13
  %71 = load ptr, ptr %4, align 8
  ret ptr %71
}

; Function Attrs: mustprogress nounwind uwtable
define linkonce_odr noundef i64 @_ZNKSt6vectorIP11TIntermNodeN7glslang14pool_allocatorIS1_EEE4sizeEv(ptr noundef nonnull align 8 dereferenceable(32) %0) #0 comdat align 2 {
  %2 = alloca ptr, align 8
  store ptr %0, ptr %2, align 8
  %3 = load ptr, ptr %2, align 8
  %4 = getelementptr inbounds %"struct.std::_Vector_base", ptr %3, i32 0, i32 0
  %5 = getelementptr inbounds i8, ptr %4, i64 8
  %6 = getelementptr inbounds %"struct.std::_Vector_base<TIntermNode *, glslang::pool_allocator<TIntermNode *>>::_Vector_impl_data", ptr %5, i32 0, i32 1
  %7 = load ptr, ptr %6, align 8
  %8 = getelementptr inbounds %"struct.std::_Vector_base", ptr %3, i32 0, i32 0
  %9 = getelementptr inbounds i8, ptr %8, i64 8
  %10 = getelementptr inbounds %"struct.std::_Vector_base<TIntermNode *, glslang::pool_allocator<TIntermNode *>>::_Vector_impl_data", ptr %9, i32 0, i32 0
  %11 = load ptr, ptr %10, align 8
  %12 = ptrtoint ptr %7 to i64
  %13 = ptrtoint ptr %11 to i64
  %14 = sub i64 %12, %13
  %15 = sdiv exact i64 %14, 8
  ret i64 %15
}

; Function Attrs: mustprogress nounwind uwtable
define linkonce_odr noundef ptr @_ZNKSt10_List_nodeIN7glslang14TAttributeArgsEE9_M_valptrEv(ptr noundef nonnull align 8 dereferenceable(32) %0) #0 comdat align 2 {
  %2 = alloca ptr, align 8
  store ptr %0, ptr %2, align 8
  %3 = load ptr, ptr %2, align 8
  %4 = getelementptr inbounds %"struct.std::_List_node", ptr %3, i32 0, i32 1
  %5 = call noundef ptr @_ZNK9__gnu_cxx16__aligned_membufIN7glslang14TAttributeArgsEE6_M_ptrEv(ptr noundef nonnull align 8 dereferenceable(16) %4) #7
  ret ptr %5
}

; Function Attrs: mustprogress nounwind uwtable
define noundef zeroext i1 @_ZNK7glslang14TAttributeArgs6getIntERii(ptr noundef nonnull align 8 dereferenceable(16) %0, ptr noundef nonnull align 4 dereferenceable(4) %1, i32 noundef %2) #0 align 2 {
  %4 = alloca i1, align 1
  %5 = alloca ptr, align 8
  %6 = alloca ptr, align 8
  %7 = alloca i32, align 4
  %8 = alloca ptr, align 8
  store ptr %0, ptr %5, align 8
  store ptr %1, ptr %6, align 8
  store i32 %2, ptr %7, align 4
  %9 = load ptr, ptr %5, align 8
  %10 = load i32, ptr %7, align 4
  %11 = call noundef ptr @_ZNK7glslang14TAttributeArgs13getConstUnionENS_10TBasicTypeEi(ptr noundef nonnull align 8 dereferenceable(16) %9, i32 noundef 8, i32 noundef %10)
  store ptr %11, ptr %8, align 8
  %12 = load ptr, ptr %8, align 8
  %13 = icmp eq ptr %12, null
  br i1 %13, label %14, label %15

14:                                               ; preds = %3
  store i1 false, ptr %4, align 1
  br label %19

15:                                               ; preds = %3
  %16 = load ptr, ptr %8, align 8
  %17 = call noundef i32 @_ZNK7glslang11TConstUnion9getIConstEv(ptr noundef nonnull align 8 dereferenceable(12) %16)
  %18 = load ptr, ptr %6, align 8
  store i32 %17, ptr %18, align 4
  store i1 true, ptr %4, align 1
  br label %19

19:                                               ; preds = %15, %14
  %20 = load i1, ptr %4, align 1
  ret i1 %20
}

; Function Attrs: mustprogress nounwind uwtable
define noundef i32 @_ZNK7glslang14TAttributeArgs4sizeEv(ptr noundef nonnull align 8 dereferenceable(16) %0) #0 align 2 {
  %2 = alloca ptr, align 8
  store ptr %0, ptr %2, align 8
  %3 = load ptr, ptr %2, align 8
  %4 = getelementptr inbounds %"struct.glslang::TAttributeArgs", ptr %3, i32 0, i32 1
  %5 = load ptr, ptr %4, align 8
  %6 = icmp eq ptr %5, null
  br i1 %6, label %7, label %8

7:                                                ; preds = %1
  br label %17

8:                                                ; preds = %1
  %9 = getelementptr inbounds %"struct.glslang::TAttributeArgs", ptr %3, i32 0, i32 1
  %10 = load ptr, ptr %9, align 8
  %11 = load ptr, ptr %10, align 8
  %12 = getelementptr inbounds ptr, ptr %11, i64 51
  %13 = load ptr, ptr %12, align 8
  %14 = call noundef nonnull align 8 dereferenceable(32) ptr %13(ptr noundef nonnull align 8 dereferenceable(364) %10)
  %15 = call noundef i64 @_ZNKSt6vectorIP11TIntermNodeN7glslang14pool_allocatorIS1_EEE4sizeEv(ptr noundef nonnull align 8 dereferenceable(32) %14) #7
  %16 = trunc i64 %15 to i32
  br label %17

17:                                               ; preds = %8, %7
  %18 = phi i32 [ 0, %7 ], [ %16, %8 ]
  ret i32 %18
}

; Function Attrs: mustprogress nounwind uwtable
define linkonce_odr noundef ptr @_ZNKSt20_List_const_iteratorIN7glslang14TAttributeArgsEEptEv(ptr noundef nonnull align 8 dereferenceable(8) %0) #0 comdat align 2 {
  %2 = alloca ptr, align 8
  store ptr %0, ptr %2, align 8
  %3 = load ptr, ptr %2, align 8
  %4 = getelementptr inbounds %"struct.std::_List_const_iterator", ptr %3, i32 0, i32 0
  %5 = load ptr, ptr %4, align 8
  %6 = call noundef ptr @_ZNKSt10_List_nodeIN7glslang14TAttributeArgsEE9_M_valptrEv(ptr noundef nonnull align 8 dereferenceable(32) %5)
  ret ptr %6
}

; Function Attrs: mustprogress nounwind uwtable
define internal noundef zeroext i1 @"_ZZN7glslang13TParseContext20handleLoopAttributesERKNS_5TListINS_14TAttributeArgsEEEP11TIntermNodeENK3$_3clEPKcRj"(ptr noundef nonnull align 8 dereferenceable(24) %0, ptr noundef %1, ptr noundef nonnull align 4 dereferenceable(4) %2) #0 align 2 {
  %4 = alloca i1, align 1
  %5 = alloca ptr, align 8
  %6 = alloca ptr, align 8
  %7 = alloca ptr, align 8
  %8 = alloca i32, align 4
  store ptr %0, ptr %5, align 8
  store ptr %1, ptr %6, align 8
  store ptr %2, ptr %7, align 8
  %9 = load ptr, ptr %5, align 8
  %10 = getelementptr inbounds %class.anon.173, ptr %9, i32 0, i32 1
  %11 = load ptr, ptr %10, align 8
  %12 = getelementptr inbounds %class.anon.173, ptr %9, i32 0, i32 0
  %13 = load ptr, ptr %12, align 8
  %14 = call noundef ptr @_ZNKSt20_List_const_iteratorIN7glslang14TAttributeArgsEEptEv(ptr noundef nonnull align 8 dereferenceable(8) %13) #7
  %15 = call noundef i32 @_ZNK7glslang14TAttributeArgs4sizeEv(ptr noundef nonnull align 8 dereferenceable(16) %14)
  %16 = icmp eq i32 %15, 1
  br i1 %16, label %17, label %22

17:                                               ; preds = %3
  %18 = getelementptr inbounds %class.anon.173, ptr %9, i32 0, i32 0
  %19 = load ptr, ptr %18, align 8
  %20 = call noundef ptr @_ZNKSt20_List_const_iteratorIN7glslang14TAttributeArgsEEptEv(ptr noundef nonnull align 8 dereferenceable(8) %19) #7
  %21 = call noundef zeroext i1 @_ZNK7glslang14TAttributeArgs6getIntERii(ptr noundef nonnull align 8 dereferenceable(16) %20, ptr noundef nonnull align 4 dereferenceable(4) %8, i32 noundef 0)
  br i1 %21, label %34, label %22

22:                                               ; preds = %17, %3
  %23 = getelementptr inbounds %class.anon.173, ptr %9, i32 0, i32 2
  %24 = load ptr, ptr %23, align 8
  %25 = load ptr, ptr %24, align 8
  %26 = load ptr, ptr %25, align 8
  %27 = getelementptr inbounds ptr, ptr %26, i64 0
  %28 = load ptr, ptr %27, align 8
  %29 = call noundef nonnull align 8 dereferenceable(24) ptr %28(ptr noundef nonnull align 8 dereferenceable(32) %25)
  %30 = load ptr, ptr %6, align 8
  %31 = load ptr, ptr %11, align 8
  %32 = getelementptr inbounds ptr, ptr %31, i64 44
  %33 = load ptr, ptr %32, align 8
  call void (ptr, ptr, ptr, ptr, ptr, ...) %33(ptr noundef nonnull align 8 dereferenceable(1280) %11, ptr noundef nonnull align 8 dereferenceable(24) %29, ptr noundef @.str.25, ptr noundef %30, ptr noundef @.str.17)
  store i1 false, ptr %4, align 1
  br label %37

34:                                               ; preds = %17
  %35 = load i32, ptr %8, align 4
  %36 = load ptr, ptr %7, align 8
  store i32 %35, ptr %36, align 4
  store i1 true, ptr %4, align 1
  br label %37

37:                                               ; preds = %34, %22
  %38 = load i1, ptr %4, align 1
  ret i1 %38
}