; Function Attrs: mustprogress nounwind uwtable
define internal fastcc noundef zeroext i1 @"_ZZN7glslang13TParseContext20handleLoopAttributesERKNS_5TListINS_14TAttributeArgsEEEP11TIntermNodeENK3$_3clEPKcRj"(ptr nocapture noundef nonnull readonly align 8 dereferenceable(24) %0, ptr noundef %1, ptr nocapture noundef nonnull writeonly align 4 dereferenceable(4) %2) unnamed_addr #0 align 2 {
  %4 = getelementptr inbounds i8, ptr %0, i64 8
  %5 = load ptr, ptr %4, align 8
  %6 = load ptr, ptr %0, align 8
  %7 = load ptr, ptr %6, align 8
  %8 = getelementptr inbounds i8, ptr %7, i64 24
  %9 = load ptr, ptr %8, align 8
  %10 = icmp eq ptr %9, null
  br i1 %10, label %_ZNK7glslang14TAttributeArgs4sizeEv.exit.thread, label %_ZNK7glslang14TAttributeArgs4sizeEv.exit

_ZNK7glslang14TAttributeArgs4sizeEv.exit:         ; preds = %3
  %11 = load ptr, ptr %9, align 8
  %12 = getelementptr inbounds i8, ptr %11, i64 408
  %13 = load ptr, ptr %12, align 8
  %14 = tail call noundef nonnull align 8 dereferenceable(32) ptr %13(ptr noundef nonnull align 8 dereferenceable(364) %9) #11
  %15 = getelementptr inbounds i8, ptr %14, i64 8
  %16 = getelementptr inbounds i8, ptr %14, i64 16
  %17 = load ptr, ptr %16, align 8
  %18 = load ptr, ptr %15, align 8
  %19 = ptrtoint ptr %17 to i64
  %20 = ptrtoint ptr %18 to i64
  %21 = sub i64 %19, %20
  %22 = and i64 %21, 34359738360
  %23 = icmp eq i64 %22, 8
  br i1 %23, label %24, label %_ZNK7glslang14TAttributeArgs4sizeEv.exit.thread

24:                                               ; preds = %_ZNK7glslang14TAttributeArgs4sizeEv.exit
  %25 = load ptr, ptr %0, align 8
  %26 = load ptr, ptr %25, align 8
  %27 = getelementptr inbounds i8, ptr %26, i64 24
  %28 = load ptr, ptr %27, align 8
  %29 = icmp eq ptr %28, null
  br i1 %29, label %_ZNK7glslang14TAttributeArgs4sizeEv.exit.thread, label %30

30:                                               ; preds = %24
  %31 = load ptr, ptr %28, align 8
  %32 = getelementptr inbounds i8, ptr %31, i64 408
  %33 = load ptr, ptr %32, align 8
  %34 = tail call noundef nonnull align 8 dereferenceable(32) ptr %33(ptr noundef nonnull align 8 dereferenceable(364) %28) #11
  %35 = getelementptr inbounds i8, ptr %34, i64 8
  %36 = getelementptr inbounds i8, ptr %34, i64 16
  %37 = load ptr, ptr %36, align 8
  %38 = load ptr, ptr %35, align 8
  %39 = ptrtoint ptr %37 to i64
  %40 = ptrtoint ptr %38 to i64
  %41 = sub i64 %39, %40
  %42 = lshr exact i64 %41, 3
  %43 = trunc i64 %42 to i32
  %.not.i.i = icmp sgt i32 %43, 0
  br i1 %.not.i.i, label %44, label %_ZNK7glslang14TAttributeArgs4sizeEv.exit.thread

44:                                               ; preds = %30
  %45 = load ptr, ptr %27, align 8
  %46 = load ptr, ptr %45, align 8
  %47 = getelementptr inbounds i8, ptr %46, i64 408
  %48 = load ptr, ptr %47, align 8
  %49 = tail call noundef nonnull align 8 dereferenceable(32) ptr %48(ptr noundef nonnull align 8 dereferenceable(364) %45) #11
  %50 = getelementptr inbounds i8, ptr %49, i64 8
  %51 = load ptr, ptr %50, align 8
  %52 = load ptr, ptr %51, align 8
  %53 = load ptr, ptr %52, align 8
  %54 = getelementptr inbounds i8, ptr %53, i64 40
  %55 = load ptr, ptr %54, align 8
  %56 = tail call noundef ptr %55(ptr noundef nonnull align 8 dereferenceable(32) %52) #11
  %57 = icmp eq ptr %56, null
  br i1 %57, label %_ZNK7glslang14TAttributeArgs4sizeEv.exit.thread, label %58

58:                                               ; preds = %44
  %59 = load ptr, ptr %27, align 8
  %60 = load ptr, ptr %59, align 8
  %61 = getelementptr inbounds i8, ptr %60, i64 408
  %62 = load ptr, ptr %61, align 8
  %63 = tail call noundef nonnull align 8 dereferenceable(32) ptr %62(ptr noundef nonnull align 8 dereferenceable(364) %59) #11
  %64 = getelementptr inbounds i8, ptr %63, i64 8
  %65 = load ptr, ptr %64, align 8
  %66 = load ptr, ptr %65, align 8
  %67 = load ptr, ptr %66, align 8
  %68 = getelementptr inbounds i8, ptr %67, i64 40
  %69 = load ptr, ptr %68, align 8
  %70 = tail call noundef ptr %69(ptr noundef nonnull align 8 dereferenceable(32) %66) #11
  %71 = getelementptr inbounds i8, ptr %70, i64 192
  %72 = load ptr, ptr %71, align 8
  %73 = getelementptr inbounds i8, ptr %72, i64 8
  %74 = load ptr, ptr %73, align 8
  %75 = getelementptr inbounds i8, ptr %74, i64 8
  %76 = load i32, ptr %75, align 8
  %.not10.i.i = icmp eq i32 %76, 8
  br i1 %.not10.i.i, label %86, label %_ZNK7glslang14TAttributeArgs4sizeEv.exit.thread

_ZNK7glslang14TAttributeArgs4sizeEv.exit.thread:  ; preds = %58, %44, %30, %24, %3, %_ZNK7glslang14TAttributeArgs4sizeEv.exit
  %77 = getelementptr inbounds i8, ptr %0, i64 16
  %78 = load ptr, ptr %77, align 8
  %79 = load ptr, ptr %78, align 8
  %80 = load ptr, ptr %79, align 8
  %81 = load ptr, ptr %80, align 8
  %82 = tail call noundef nonnull align 8 dereferenceable(24) ptr %81(ptr noundef nonnull align 8 dereferenceable(32) %79) #11
  %83 = load ptr, ptr %5, align 8
  %84 = getelementptr inbounds i8, ptr %83, i64 352
  %85 = load ptr, ptr %84, align 8
  tail call void (ptr, ptr, ptr, ptr, ptr, ...) %85(ptr noundef nonnull align 8 dereferenceable(1280) %5, ptr noundef nonnull align 8 dereferenceable(24) %82, ptr noundef nonnull @.str.25, ptr noundef %1, ptr noundef nonnull @.str.17) #11
  br label %88

86:                                               ; preds = %58
  %87 = load i32, ptr %74, align 8
  store i32 %87, ptr %2, align 4
  br label %88

88:                                               ; preds = %86, %_ZNK7glslang14TAttributeArgs4sizeEv.exit.thread
  %.0 = phi i1 [ true, %86 ], [ false, %_ZNK7glslang14TAttributeArgs4sizeEv.exit.thread ]
  ret i1 %.0
}